target datalayout = "e-m:e-p270:32:32-p271:32:32-p272:64:64-i64:64-i128:128-f80:128-n8:16:32:64-S128"
target triple = "x86_64-pc-linux-gnu"

%struct.from_utf8_mac_status = type { [16 x i8], i32, i32 }

; Function Attrs: nounwind sspstrong uwtable
define internal zeroext i8 @buf_shift(ptr noundef %0) #0 {
  %2 = alloca ptr, align 8
  %3 = alloca i8, align 1
  store ptr %0, ptr %2, align 8, !tbaa !10
  call void @llvm.lifetime.start.p0(i64 1, ptr %3) #3
  %4 = load ptr, ptr %2, align 8, !tbaa !10
  %5 = getelementptr inbounds nuw %struct.from_utf8_mac_status, ptr %4, i32 0, i32 0
  %6 = load ptr, ptr %2, align 8, !tbaa !10
  %7 = getelementptr inbounds nuw %struct.from_utf8_mac_status, ptr %6, i32 0, i32 1
  %8 = load i32, ptr %7, align 4, !tbaa !20
  %9 = add nsw i32 %8, 1
  store i32 %9, ptr %7, align 4, !tbaa !20
  %10 = sext i32 %8 to i64
  %11 = getelementptr inbounds [16 x i8], ptr %5, i64 0, i64 %10
  %12 = load i8, ptr %11, align 1, !tbaa !16
  store i8 %12, ptr %3, align 1, !tbaa !16
  %13 = load ptr, ptr %2, align 8, !tbaa !10
  %14 = getelementptr inbounds nuw %struct.from_utf8_mac_status, ptr %13, i32 0, i32 1
  %15 = load i32, ptr %14, align 4, !tbaa !20
  %16 = srem i32 %15, 16
  store i32 %16, ptr %14, align 4, !tbaa !20
  %17 = load i8, ptr %3, align 1, !tbaa !16
  call void @llvm.lifetime.end.p0(i64 1, ptr %3) #3
  ret i8 %17
}

; Function Attrs: nounwind sspstrong uwtable
define internal i64 @buf_output_all(ptr noundef %0, ptr noundef %1) #0 {
  %3 = alloca ptr, align 8
  %4 = alloca ptr, align 8
  %5 = alloca i64, align 8
  store ptr %0, ptr %3, align 8, !tbaa !10
  store ptr %1, ptr %4, align 8, !tbaa !12
  call void @llvm.lifetime.start.p0(i64 8, ptr %5) #3
  store i64 0, ptr %5, align 8, !tbaa !14
  br label %6

6:                                                ; preds = %15, %2
  %7 = load ptr, ptr %3, align 8, !tbaa !10
  %8 = getelementptr inbounds nuw %struct.from_utf8_mac_status, ptr %7, i32 0, i32 1
  %9 = load i32, ptr %8, align 4, !tbaa !20
  %10 = load ptr, ptr %3, align 8, !tbaa !10
  %11 = getelementptr inbounds nuw %struct.from_utf8_mac_status, ptr %10, i32 0, i32 2
  %12 = load i32, ptr %11, align 4, !tbaa !17
  %13 = icmp eq i32 %9, %12
  %14 = xor i1 %13, true
  br i1 %14, label %15, label %22

15:                                               ; preds = %6
  %16 = load ptr, ptr %3, align 8, !tbaa !10
  %17 = call zeroext i8 @buf_shift(ptr noundef %16)
  %18 = load ptr, ptr %4, align 8, !tbaa !12
  %19 = load i64, ptr %5, align 8, !tbaa !14
  %20 = add i64 %19, 1
  store i64 %20, ptr %5, align 8, !tbaa !14
  %21 = getelementptr inbounds nuw i8, ptr %18, i64 %19
  store i8 %17, ptr %21, align 1, !tbaa !16
  br label %6, !llvm.loop !26

22:                                               ; preds = %6
  %23 = load i64, ptr %5, align 8, !tbaa !14
  call void @llvm.lifetime.end.p0(i64 8, ptr %5) #3
  ret i64 %23
}

; Function Attrs: nounwind sspstrong uwtable
define internal i64 @from_utf8_mac_finish(ptr noundef %0, ptr noundef %1, i64 noundef %2) #0 {
  %4 = alloca ptr, align 8
  %5 = alloca ptr, align 8
  %6 = alloca i64, align 8
  %7 = alloca ptr, align 8
  store ptr %0, ptr %4, align 8, !tbaa !6
  store ptr %1, ptr %5, align 8, !tbaa !12
  store i64 %2, ptr %6, align 8, !tbaa !14
  call void @llvm.lifetime.start.p0(i64 8, ptr %7) #3
  %8 = load ptr, ptr %4, align 8, !tbaa !6
  store ptr %8, ptr %7, align 8, !tbaa !10
  %9 = load ptr, ptr %7, align 8, !tbaa !10
  %10 = load ptr, ptr %5, align 8, !tbaa !12
  %11 = call i64 @buf_output_all(ptr noundef %9, ptr noundef %10)
  call void @llvm.lifetime.end.p0(i64 8, ptr %7) #3
  ret i64 %11
}