; Function Attrs: nofree norecurse nosync nounwind sspstrong memory(argmem: readwrite) uwtable
define internal i64 @from_utf8_mac_finish(ptr noundef captures(none) %0, ptr noundef writeonly captures(none) %1, i64 %2) #3 {
  %4 = getelementptr inbounds nuw i8, ptr %0, i64 16
  %5 = getelementptr inbounds nuw i8, ptr %0, i64 20
  %6 = load i32, ptr %4, align 4, !tbaa !11
  %7 = load i32, ptr %5, align 4, !tbaa !6
  %.not5.i = icmp eq i32 %6, %7
  br i1 %.not5.i, label %buf_output_all.exit, label %.lr.ph.i

.lr.ph.i:                                         ; preds = %3, %.lr.ph.i
  %8 = phi i32 [ %16, %.lr.ph.i ], [ %6, %3 ]
  %.06.i = phi i64 [ %14, %.lr.ph.i ], [ 0, %3 ]
  %9 = add nsw i32 %8, 1
  store i32 %9, ptr %4, align 4, !tbaa !11
  %10 = sext i32 %8 to i64
  %11 = getelementptr inbounds [16 x i8], ptr %0, i64 0, i64 %10
  %12 = load i8, ptr %11, align 1, !tbaa !12
  %13 = srem i32 %9, 16
  store i32 %13, ptr %4, align 4, !tbaa !11
  %14 = add i64 %.06.i, 1
  %15 = getelementptr inbounds nuw i8, ptr %1, i64 %.06.i
  store i8 %12, ptr %15, align 1, !tbaa !12
  %16 = load i32, ptr %4, align 4, !tbaa !11
  %17 = load i32, ptr %5, align 4, !tbaa !6
  %.not.i = icmp eq i32 %16, %17
  br i1 %.not.i, label %buf_output_all.exit, label %.lr.ph.i, !llvm.loop !13

buf_output_all.exit:                              ; preds = %.lr.ph.i, %3
  %.0.lcssa.i = phi i64 [ 0, %3 ], [ %14, %.lr.ph.i ]
  ret i64 %.0.lcssa.i
}